ccopy_reg
_reconstructor
p0
(cwithings
WithingsCredentials
p1
c__builtin__
object
p2
Ntp3
Rp4
(dp5
S'access_token'
p6
V163c2270eb290d9bd09f21ff2e4f3c6e585c4f52e5d729b1026599fe1195
p7
sS'consumer_secret'
p8
Vb49e5363b640f9901c88e7969d8cb95cf2882418806e67d35d72c20e01ffb
p9
sS'access_token_secret'
p10
V7fc1e1b64b07bdee50503ee6545f513687d837993b69e1e86e12c4c796e1
p11
sS'user_id'
p12
V6558076
p13
sS'consumer_key'
p14
V381f00e540893d63ef2f54942d9cdf5b591dc4393bcf3f3b3e417b1992cedd
p15
sb.